
exti.elf:     file format elf32-littlearm


Disassembly of section .text:

87800000 <_start>:
87800000:	e59ff12c 	ldr	pc, [pc, #300]	; 87800134 <FIQ_Handler+0x8>
87800004:	e59ff12c 	ldr	pc, [pc, #300]	; 87800138 <FIQ_Handler+0xc>
87800008:	e59ff12c 	ldr	pc, [pc, #300]	; 8780013c <FIQ_Handler+0x10>
8780000c:	e59ff12c 	ldr	pc, [pc, #300]	; 87800140 <FIQ_Handler+0x14>
87800010:	e59ff12c 	ldr	pc, [pc, #300]	; 87800144 <FIQ_Handler+0x18>
87800014:	e59ff12c 	ldr	pc, [pc, #300]	; 87800148 <FIQ_Handler+0x1c>
87800018:	e59ff12c 	ldr	pc, [pc, #300]	; 8780014c <FIQ_Handler+0x20>
8780001c:	e59ff12c 	ldr	pc, [pc, #300]	; 87800150 <FIQ_Handler+0x24>

87800020 <Reset_Handler>:
87800020:	f10c0080 	cpsid	i
87800024:	ee110f10 	mrc	15, 0, r0, cr1, cr0, {0}
87800028:	e3c00a01 	bic	r0, r0, #4096	; 0x1000
8780002c:	e3c00007 	bic	r0, r0, #7
87800030:	ee010f10 	mcr	15, 0, r0, cr1, cr0, {0}
87800034:	e59f0118 	ldr	r0, [pc, #280]	; 87800154 <FIQ_Handler+0x28>
87800038:	f57ff04f 	dsb	sy
8780003c:	f57ff06f 	isb	sy
87800040:	ee0c0f10 	mcr	15, 0, r0, cr12, cr0, {0}
87800044:	f57ff04f 	dsb	sy
87800048:	f57ff06f 	isb	sy

8780004c <_bss_start>:
8780004c:	878006d8 			; <UNDEFINED> instruction: 0x878006d8

87800050 <_bss_end>:
87800050:	87800be0 	strhi	r0, [r0, r0, ror #23]
87800054:	e51f0010 	ldr	r0, [pc, #-16]	; 8780004c <_bss_start>
87800058:	e51f1010 	ldr	r1, [pc, #-16]	; 87800050 <_bss_end>
8780005c:	e3a02000 	mov	r2, #0

87800060 <bss_loop>:
87800060:	e8a00004 	stmia	r0!, {r2}
87800064:	e1500001 	cmp	r0, r1
87800068:	dafffffc 	ble	87800060 <bss_loop>
8780006c:	e10f0000 	mrs	r0, CPSR
87800070:	e3c0001f 	bic	r0, r0, #31
87800074:	e3800012 	orr	r0, r0, #18
87800078:	e129f000 	msr	CPSR_fc, r0
8780007c:	e59fd0d4 	ldr	sp, [pc, #212]	; 87800158 <FIQ_Handler+0x2c>
87800080:	e10f0000 	mrs	r0, CPSR
87800084:	e3c0001f 	bic	r0, r0, #31
87800088:	e380001f 	orr	r0, r0, #31
8780008c:	e129f000 	msr	CPSR_fc, r0
87800090:	e59fd0c4 	ldr	sp, [pc, #196]	; 8780015c <FIQ_Handler+0x30>
87800094:	e10f0000 	mrs	r0, CPSR
87800098:	e3c0001f 	bic	r0, r0, #31
8780009c:	e3800013 	orr	r0, r0, #19
878000a0:	e129f000 	msr	CPSR_fc, r0
878000a4:	e59fd0b4 	ldr	sp, [pc, #180]	; 87800160 <FIQ_Handler+0x34>
878000a8:	f1080080 	cpsie	i
878000ac:	ea000185 	b	878006c8 <__main_from_arm>

878000b0 <Undefined_Handler>:
878000b0:	e59f0080 	ldr	r0, [pc, #128]	; 87800138 <FIQ_Handler+0xc>
878000b4:	e12fff10 	bx	r0

878000b8 <SVC_Handler>:
878000b8:	e59f007c 	ldr	r0, [pc, #124]	; 8780013c <FIQ_Handler+0x10>
878000bc:	e12fff10 	bx	r0

878000c0 <Preabort_Handler>:
878000c0:	e59f0078 	ldr	r0, [pc, #120]	; 87800140 <FIQ_Handler+0x14>
878000c4:	e12fff10 	bx	r0

878000c8 <Databort_Handler>:
878000c8:	e59f0074 	ldr	r0, [pc, #116]	; 87800144 <FIQ_Handler+0x18>
878000cc:	e12fff10 	bx	r0

878000d0 <Notused_Handler>:
878000d0:	e59f0070 	ldr	r0, [pc, #112]	; 87800148 <FIQ_Handler+0x1c>
878000d4:	e12fff10 	bx	r0

878000d8 <IRQ_Handler>:
878000d8:	e52de004 	push	{lr}		; (str lr, [sp, #-4]!)
878000dc:	e92d100f 	push	{r0, r1, r2, r3, ip}
878000e0:	e14f0000 	mrs	r0, SPSR
878000e4:	e52d0004 	push	{r0}		; (str r0, [sp, #-4]!)
878000e8:	ee9f1f10 	mrc	15, 4, r1, cr15, cr0, {0}
878000ec:	e2811a02 	add	r1, r1, #8192	; 0x2000
878000f0:	e591000c 	ldr	r0, [r1, #12]
878000f4:	e92d0003 	push	{r0, r1}
878000f8:	f1020013 	cps	#19
878000fc:	e52de004 	push	{lr}		; (str lr, [sp, #-4]!)
87800100:	e59f205c 	ldr	r2, [pc, #92]	; 87800164 <FIQ_Handler+0x38>
87800104:	e12fff32 	blx	r2
87800108:	e49de004 	pop	{lr}		; (ldr lr, [sp], #4)
8780010c:	f1020012 	cps	#18
87800110:	e8bd0003 	pop	{r0, r1}
87800114:	e5810010 	str	r0, [r1, #16]
87800118:	e49d0004 	pop	{r0}		; (ldr r0, [sp], #4)
8780011c:	e16ff000 	msr	SPSR_fsxc, r0
87800120:	e8bd100f 	pop	{r0, r1, r2, r3, ip}
87800124:	e49de004 	pop	{lr}		; (ldr lr, [sp], #4)
87800128:	e25ef004 	subs	pc, lr, #4

8780012c <FIQ_Handler>:
8780012c:	e59f001c 	ldr	r0, [pc, #28]	; 87800150 <FIQ_Handler+0x24>
87800130:	e12fff10 	bx	r0
87800134:	87800020 	strhi	r0, [r0, r0, lsr #32]
87800138:	878000b0 			; <UNDEFINED> instruction: 0x878000b0
8780013c:	878000b8 			; <UNDEFINED> instruction: 0x878000b8
87800140:	878000c0 	strhi	r0, [r0, r0, asr #1]
87800144:	878000c8 	strhi	r0, [r0, r8, asr #1]
87800148:	878000d0 			; <UNDEFINED> instruction: 0x878000d0
8780014c:	878000d8 			; <UNDEFINED> instruction: 0x878000d8
87800150:	8780012c 	strhi	r0, [r0, ip, lsr #2]
87800154:	87800000 	strhi	r0, [r0, r0]
87800158:	80600000 	rsbhi	r0, r0, r0
8780015c:	80400000 	subhi	r0, r0, r0
87800160:	80200000 	eorhi	r0, r0, r0
87800164:	8780061d 	usada8hi	r0, sp, r6, r0
87800168:	00001e41 	andeq	r1, r0, r1, asr #28
8780016c:	61656100 	cmnvs	r5, r0, lsl #2
87800170:	01006962 	tsteq	r0, r2, ror #18
87800174:	00000014 	andeq	r0, r0, r4, lsl r0
87800178:	412d3705 			; <UNDEFINED> instruction: 0x412d3705
8780017c:	070a0600 	streq	r0, [sl, -r0, lsl #12]
87800180:	09010841 	stmdbeq	r1, {r0, r6, fp}
87800184:	00040a02 	andeq	r0, r4, r2, lsl #20

87800188 <imx6ul_init>:
87800188:	b508      	push	{r3, lr}
8780018a:	f000 fa5d 	bl	87800648 <int_init>
8780018e:	f000 f83b 	bl	87800208 <clk_enable>
87800192:	f000 f849 	bl	87800228 <imx6u_clk_init>
87800196:	f000 f809 	bl	878001ac <led_init>
8780019a:	f000 f8c1 	bl	87800320 <key_init>
8780019e:	f000 f90b 	bl	878003b8 <beep_init>
878001a2:	e8bd 4008 	ldmia.w	sp!, {r3, lr}
878001a6:	f000 b94f 	b.w	87800448 <exti_init>
878001aa:	bf00      	nop

878001ac <led_init>:
878001ac:	2168      	movs	r1, #104	; 0x68
878001ae:	b430      	push	{r4, r5}
878001b0:	f2c0 210e 	movt	r1, #526	; 0x20e
878001b4:	2505      	movs	r5, #5
878001b6:	f44f 723d 	mov.w	r2, #756	; 0x2f4
878001ba:	f44f 4340 	mov.w	r3, #49152	; 0xc000
878001be:	600d      	str	r5, [r1, #0]
878001c0:	f241 04b0 	movw	r4, #4272	; 0x10b0
878001c4:	f2c0 2309 	movt	r3, #521	; 0x209
878001c8:	f2c0 220e 	movt	r2, #526	; 0x20e
878001cc:	2008      	movs	r0, #8
878001ce:	2100      	movs	r1, #0
878001d0:	6014      	str	r4, [r2, #0]
878001d2:	6058      	str	r0, [r3, #4]
878001d4:	bc30      	pop	{r4, r5}
878001d6:	6019      	str	r1, [r3, #0]
878001d8:	4770      	bx	lr
878001da:	bf00      	nop

878001dc <led_control>:
878001dc:	2801      	cmp	r0, #1
878001de:	d009      	beq.n	878001f4 <led_control+0x18>
878001e0:	b938      	cbnz	r0, 878001f2 <led_control+0x16>
878001e2:	f44f 4340 	mov.w	r3, #49152	; 0xc000
878001e6:	f2c0 2309 	movt	r3, #521	; 0x209
878001ea:	681a      	ldr	r2, [r3, #0]
878001ec:	f042 0208 	orr.w	r2, r2, #8
878001f0:	601a      	str	r2, [r3, #0]
878001f2:	4770      	bx	lr
878001f4:	f44f 4340 	mov.w	r3, #49152	; 0xc000
878001f8:	f2c0 2309 	movt	r3, #521	; 0x209
878001fc:	681a      	ldr	r2, [r3, #0]
878001fe:	f022 0208 	bic.w	r2, r2, #8
87800202:	601a      	str	r2, [r3, #0]
87800204:	4770      	bx	lr
87800206:	bf00      	nop

87800208 <clk_enable>:
87800208:	f44f 4380 	mov.w	r3, #16384	; 0x4000
8780020c:	f04f 32ff 	mov.w	r2, #4294967295	; 0xffffffff
87800210:	f2c0 230c 	movt	r3, #524	; 0x20c
87800214:	669a      	str	r2, [r3, #104]	; 0x68
87800216:	66da      	str	r2, [r3, #108]	; 0x6c
87800218:	671a      	str	r2, [r3, #112]	; 0x70
8780021a:	675a      	str	r2, [r3, #116]	; 0x74
8780021c:	679a      	str	r2, [r3, #120]	; 0x78
8780021e:	67da      	str	r2, [r3, #124]	; 0x7c
87800220:	f8c3 2080 	str.w	r2, [r3, #128]	; 0x80
87800224:	4770      	bx	lr
87800226:	bf00      	nop

87800228 <imx6u_clk_init>:
87800228:	f44f 4380 	mov.w	r3, #16384	; 0x4000
8780022c:	b430      	push	{r4, r5}
8780022e:	f2c0 230c 	movt	r3, #524	; 0x20c
87800232:	68da      	ldr	r2, [r3, #12]
87800234:	0750      	lsls	r0, r2, #29
87800236:	d407      	bmi.n	87800248 <imx6u_clk_init+0x20>
87800238:	68da      	ldr	r2, [r3, #12]
8780023a:	f422 7280 	bic.w	r2, r2, #256	; 0x100
8780023e:	60da      	str	r2, [r3, #12]
87800240:	68da      	ldr	r2, [r3, #12]
87800242:	f042 0204 	orr.w	r2, r2, #4
87800246:	60da      	str	r2, [r3, #12]
87800248:	f44f 4100 	mov.w	r1, #32768	; 0x8000
8780024c:	f44f 4380 	mov.w	r3, #16384	; 0x4000
87800250:	f2c0 230c 	movt	r3, #524	; 0x20c
87800254:	f2c0 210c 	movt	r1, #524	; 0x20c
87800258:	f242 0058 	movw	r0, #8280	; 0x2058
8780025c:	2201      	movs	r2, #1
8780025e:	6008      	str	r0, [r1, #0]
87800260:	f241 041b 	movw	r4, #4123	; 0x101b
87800264:	611a      	str	r2, [r3, #16]
87800266:	f2c2 0418 	movt	r4, #8216	; 0x2018
8780026a:	68dd      	ldr	r5, [r3, #12]
8780026c:	f241 000c 	movw	r0, #4108	; 0x100c
87800270:	f2c1 3011 	movt	r0, #4881	; 0x1311
87800274:	461a      	mov	r2, r3
87800276:	f025 0504 	bic.w	r5, r5, #4
8780027a:	60dd      	str	r5, [r3, #12]
8780027c:	f8d1 5100 	ldr.w	r5, [r1, #256]	; 0x100
87800280:	f005 35c0 	and.w	r5, r5, #3233857728	; 0xc0c0c0c0
87800284:	432c      	orrs	r4, r5
87800286:	f8c1 4100 	str.w	r4, [r1, #256]	; 0x100
8780028a:	f8d1 40f0 	ldr.w	r4, [r1, #240]	; 0xf0
8780028e:	f004 34c0 	and.w	r4, r4, #3233857728	; 0xc0c0c0c0
87800292:	4320      	orrs	r0, r4
87800294:	f8c1 00f0 	str.w	r0, [r1, #240]	; 0xf0
87800298:	6999      	ldr	r1, [r3, #24]
8780029a:	f421 2140 	bic.w	r1, r1, #786432	; 0xc0000
8780029e:	6199      	str	r1, [r3, #24]
878002a0:	6999      	ldr	r1, [r3, #24]
878002a2:	f441 2180 	orr.w	r1, r1, #262144	; 0x40000
878002a6:	6199      	str	r1, [r3, #24]
878002a8:	6959      	ldr	r1, [r3, #20]
878002aa:	f021 7100 	bic.w	r1, r1, #33554432	; 0x2000000
878002ae:	6159      	str	r1, [r3, #20]
878002b0:	6c93      	ldr	r3, [r2, #72]	; 0x48
878002b2:	0699      	lsls	r1, r3, #26
878002b4:	d4fc      	bmi.n	878002b0 <imx6u_clk_init+0x88>
878002b6:	6951      	ldr	r1, [r2, #20]
878002b8:	f44f 4380 	mov.w	r3, #16384	; 0x4000
878002bc:	f2c0 230c 	movt	r3, #524	; 0x20c
878002c0:	f421 51e0 	bic.w	r1, r1, #7168	; 0x1c00
878002c4:	6151      	str	r1, [r2, #20]
878002c6:	6951      	ldr	r1, [r2, #20]
878002c8:	f441 6100 	orr.w	r1, r1, #2048	; 0x800
878002cc:	6151      	str	r1, [r2, #20]
878002ce:	6c9a      	ldr	r2, [r3, #72]	; 0x48
878002d0:	0792      	lsls	r2, r2, #30
878002d2:	d4fc      	bmi.n	878002ce <imx6u_clk_init+0xa6>
878002d4:	695a      	ldr	r2, [r3, #20]
878002d6:	bc30      	pop	{r4, r5}
878002d8:	f422 7240 	bic.w	r2, r2, #768	; 0x300
878002dc:	615a      	str	r2, [r3, #20]
878002de:	695a      	ldr	r2, [r3, #20]
878002e0:	f442 7280 	orr.w	r2, r2, #256	; 0x100
878002e4:	615a      	str	r2, [r3, #20]
878002e6:	69da      	ldr	r2, [r3, #28]
878002e8:	f062 0240 	orn	r2, r2, #64	; 0x40
878002ec:	61da      	str	r2, [r3, #28]
878002ee:	69da      	ldr	r2, [r3, #28]
878002f0:	f022 0207 	bic.w	r2, r2, #7
878002f4:	61da      	str	r2, [r3, #28]
878002f6:	4770      	bx	lr

878002f8 <delay>:
878002f8:	b082      	sub	sp, #8
878002fa:	9001      	str	r0, [sp, #4]
878002fc:	9b01      	ldr	r3, [sp, #4]
878002fe:	1e5a      	subs	r2, r3, #1
87800300:	9201      	str	r2, [sp, #4]
87800302:	b153      	cbz	r3, 8780031a <delay+0x22>
87800304:	f240 73ff 	movw	r3, #2047	; 0x7ff
87800308:	461a      	mov	r2, r3
8780030a:	3b01      	subs	r3, #1
8780030c:	2a00      	cmp	r2, #0
8780030e:	d1fb      	bne.n	87800308 <delay+0x10>
87800310:	9b01      	ldr	r3, [sp, #4]
87800312:	1e5a      	subs	r2, r3, #1
87800314:	9201      	str	r2, [sp, #4]
87800316:	2b00      	cmp	r3, #0
87800318:	d1f4      	bne.n	87800304 <delay+0xc>
8780031a:	b002      	add	sp, #8
8780031c:	4770      	bx	lr
8780031e:	bf00      	nop

87800320 <key_init>:
87800320:	218c      	movs	r1, #140	; 0x8c
87800322:	f44f 7246 	mov.w	r2, #792	; 0x318
87800326:	f44f 4340 	mov.w	r3, #49152	; 0xc000
8780032a:	b410      	push	{r4}
8780032c:	f2c0 220e 	movt	r2, #526	; 0x20e
87800330:	2405      	movs	r4, #5
87800332:	f2c0 2309 	movt	r3, #521	; 0x209
87800336:	f2c0 210e 	movt	r1, #526	; 0x20e
8780033a:	f24f 0080 	movw	r0, #61568	; 0xf080
8780033e:	600c      	str	r4, [r1, #0]
87800340:	6010      	str	r0, [r2, #0]
87800342:	685a      	ldr	r2, [r3, #4]
87800344:	f85d 4b04 	ldr.w	r4, [sp], #4
87800348:	f422 2280 	bic.w	r2, r2, #262144	; 0x40000
8780034c:	605a      	str	r2, [r3, #4]
8780034e:	4770      	bx	lr

87800350 <read_key>:
87800350:	f44f 4340 	mov.w	r3, #49152	; 0xc000
87800354:	f2c0 2309 	movt	r3, #521	; 0x209
87800358:	6818      	ldr	r0, [r3, #0]
8780035a:	f3c0 4080 	ubfx	r0, r0, #18, #1
8780035e:	4770      	bx	lr

87800360 <key_getvalue>:
87800360:	f44f 4340 	mov.w	r3, #49152	; 0xc000
87800364:	b570      	push	{r4, r5, r6, lr}
87800366:	f2c0 2309 	movt	r3, #521	; 0x209
8780036a:	681d      	ldr	r5, [r3, #0]
8780036c:	681a      	ldr	r2, [r3, #0]
8780036e:	f3c5 4580 	ubfx	r5, r5, #18, #1
87800372:	f3c2 4280 	ubfx	r2, r2, #18, #1
87800376:	4295      	cmp	r5, r2
87800378:	d117      	bne.n	878003aa <key_getvalue+0x4a>
8780037a:	2403      	movs	r4, #3
8780037c:	2002      	movs	r0, #2
8780037e:	461e      	mov	r6, r3
87800380:	f7ff ffba 	bl	878002f8 <delay>
87800384:	6833      	ldr	r3, [r6, #0]
87800386:	2002      	movs	r0, #2
87800388:	f3c3 4380 	ubfx	r3, r3, #18, #1
8780038c:	429d      	cmp	r5, r3
8780038e:	d10c      	bne.n	878003aa <key_getvalue+0x4a>
87800390:	f7ff ffb2 	bl	878002f8 <delay>
87800394:	1e63      	subs	r3, r4, #1
87800396:	f013 04ff 	ands.w	r4, r3, #255	; 0xff
8780039a:	d1f3      	bne.n	87800384 <key_getvalue+0x24>
8780039c:	f240 63d8 	movw	r3, #1752	; 0x6d8
878003a0:	4628      	mov	r0, r5
878003a2:	f2c8 7380 	movt	r3, #34688	; 0x8780
878003a6:	701d      	strb	r5, [r3, #0]
878003a8:	bd70      	pop	{r4, r5, r6, pc}
878003aa:	f240 63d8 	movw	r3, #1752	; 0x6d8
878003ae:	f2c8 7380 	movt	r3, #34688	; 0x8780
878003b2:	781d      	ldrb	r5, [r3, #0]
878003b4:	4628      	mov	r0, r5
878003b6:	bd70      	pop	{r4, r5, r6, pc}

878003b8 <beep_init>:
878003b8:	2120      	movs	r1, #32
878003ba:	f44f 722b 	mov.w	r2, #684	; 0x2ac
878003be:	f44f 4340 	mov.w	r3, #49152	; 0xc000
878003c2:	b410      	push	{r4}
878003c4:	f2c0 230a 	movt	r3, #522	; 0x20a
878003c8:	2405      	movs	r4, #5
878003ca:	f2c0 220e 	movt	r2, #526	; 0x20e
878003ce:	f2c0 210e 	movt	r1, #526	; 0x20e
878003d2:	f241 00b0 	movw	r0, #4272	; 0x10b0
878003d6:	600c      	str	r4, [r1, #0]
878003d8:	6010      	str	r0, [r2, #0]
878003da:	681a      	ldr	r2, [r3, #0]
878003dc:	f85d 4b04 	ldr.w	r4, [sp], #4
878003e0:	f042 0202 	orr.w	r2, r2, #2
878003e4:	601a      	str	r2, [r3, #0]
878003e6:	685a      	ldr	r2, [r3, #4]
878003e8:	f042 0202 	orr.w	r2, r2, #2
878003ec:	605a      	str	r2, [r3, #4]
878003ee:	4770      	bx	lr

878003f0 <beep_control>:
878003f0:	b158      	cbz	r0, 8780040a <beep_control+0x1a>
878003f2:	2801      	cmp	r0, #1
878003f4:	d108      	bne.n	87800408 <beep_control+0x18>
878003f6:	f44f 4340 	mov.w	r3, #49152	; 0xc000
878003fa:	f2c0 230a 	movt	r3, #522	; 0x20a
878003fe:	681a      	ldr	r2, [r3, #0]
87800400:	f022 0202 	bic.w	r2, r2, #2
87800404:	601a      	str	r2, [r3, #0]
87800406:	4770      	bx	lr
87800408:	4770      	bx	lr
8780040a:	f44f 4340 	mov.w	r3, #49152	; 0xc000
8780040e:	f2c0 230a 	movt	r3, #522	; 0x20a
87800412:	681a      	ldr	r2, [r3, #0]
87800414:	f042 0202 	orr.w	r2, r2, #2
87800418:	601a      	str	r2, [r3, #0]
8780041a:	4770      	bx	lr

8780041c <gpio1_io18_exit_handler>:
8780041c:	f240 62d9 	movw	r2, #1753	; 0x6d9
87800420:	b508      	push	{r3, lr}
87800422:	f2c8 7280 	movt	r2, #34688	; 0x8780
87800426:	7813      	ldrb	r3, [r2, #0]
87800428:	fab3 f383 	clz	r3, r3
8780042c:	095b      	lsrs	r3, r3, #5
8780042e:	4618      	mov	r0, r3
87800430:	7013      	strb	r3, [r2, #0]
87800432:	f7ff fed3 	bl	878001dc <led_control>
87800436:	f44f 4040 	mov.w	r0, #49152	; 0xc000
8780043a:	2112      	movs	r1, #18
8780043c:	f2c0 2009 	movt	r0, #521	; 0x209
87800440:	e8bd 4008 	ldmia.w	sp!, {r3, lr}
87800444:	f000 b854 	b.w	878004f0 <gpio_interrupt_flag_clear>

87800448 <exti_init>:
87800448:	228c      	movs	r2, #140	; 0x8c
8780044a:	f44f 7346 	mov.w	r3, #792	; 0x318
8780044e:	b570      	push	{r4, r5, r6, lr}
87800450:	f2c0 220e 	movt	r2, #526	; 0x20e
87800454:	2005      	movs	r0, #5
87800456:	f2c0 230e 	movt	r3, #526	; 0x20e
8780045a:	f24f 0180 	movw	r1, #61568	; 0xf080
8780045e:	f44f 4440 	mov.w	r4, #49152	; 0xc000
87800462:	b084      	sub	sp, #16
87800464:	6010      	str	r0, [r2, #0]
87800466:	f2c0 2409 	movt	r4, #521	; 0x209
8780046a:	6019      	str	r1, [r3, #0]
8780046c:	2304      	movs	r3, #4
8780046e:	4620      	mov	r0, r4
87800470:	2500      	movs	r5, #0
87800472:	eb0d 0203 	add.w	r2, sp, r3
87800476:	2112      	movs	r1, #18
87800478:	9501      	str	r5, [sp, #4]
8780047a:	9303      	str	r3, [sp, #12]
8780047c:	f000 f886 	bl	8780058c <gpio_init>
87800480:	ee9f 3f10 	mrc	15, 4, r3, cr15, cr0, {0}
87800484:	0c1b      	lsrs	r3, r3, #16
87800486:	f241 100c 	movw	r0, #4364	; 0x110c
8780048a:	2608      	movs	r6, #8
8780048c:	041b      	lsls	r3, r3, #16
8780048e:	f240 411d 	movw	r1, #1053	; 0x41d
87800492:	462a      	mov	r2, r5
87800494:	501e      	str	r6, [r3, r0]
87800496:	f2c8 7180 	movt	r1, #34688	; 0x8780
8780049a:	2063      	movs	r0, #99	; 0x63
8780049c:	f000 f8b4 	bl	87800608 <system_register_irqhandler>
878004a0:	4620      	mov	r0, r4
878004a2:	2112      	movs	r1, #18
878004a4:	f000 f814 	bl	878004d0 <gpio_interrupt_enable>
878004a8:	b004      	add	sp, #16
878004aa:	bd70      	pop	{r4, r5, r6, pc}

878004ac <gpio_pinwrite>:
878004ac:	2301      	movs	r3, #1
878004ae:	fa03 f101 	lsl.w	r1, r3, r1
878004b2:	6803      	ldr	r3, [r0, #0]
878004b4:	b112      	cbz	r2, 878004bc <gpio_pinwrite+0x10>
878004b6:	4319      	orrs	r1, r3
878004b8:	6001      	str	r1, [r0, #0]
878004ba:	4770      	bx	lr
878004bc:	ea23 0101 	bic.w	r1, r3, r1
878004c0:	6001      	str	r1, [r0, #0]
878004c2:	4770      	bx	lr

878004c4 <gpio_pinread>:
878004c4:	6800      	ldr	r0, [r0, #0]
878004c6:	40c8      	lsrs	r0, r1
878004c8:	f000 0001 	and.w	r0, r0, #1
878004cc:	4770      	bx	lr
878004ce:	bf00      	nop

878004d0 <gpio_interrupt_enable>:
878004d0:	6942      	ldr	r2, [r0, #20]
878004d2:	2301      	movs	r3, #1
878004d4:	fa03 f101 	lsl.w	r1, r3, r1
878004d8:	4311      	orrs	r1, r2
878004da:	6141      	str	r1, [r0, #20]
878004dc:	4770      	bx	lr
878004de:	bf00      	nop

878004e0 <gpio_interrupt_disable>:
878004e0:	6943      	ldr	r3, [r0, #20]
878004e2:	2201      	movs	r2, #1
878004e4:	fa02 f101 	lsl.w	r1, r2, r1
878004e8:	ea23 0301 	bic.w	r3, r3, r1
878004ec:	6143      	str	r3, [r0, #20]
878004ee:	4770      	bx	lr

878004f0 <gpio_interrupt_flag_clear>:
878004f0:	6982      	ldr	r2, [r0, #24]
878004f2:	2301      	movs	r3, #1
878004f4:	fa03 f101 	lsl.w	r1, r3, r1
878004f8:	4311      	orrs	r1, r2
878004fa:	6181      	str	r1, [r0, #24]
878004fc:	4770      	bx	lr
878004fe:	bf00      	nop

87800500 <gpio_interrupt_config>:
87800500:	69c3      	ldr	r3, [r0, #28]
87800502:	290f      	cmp	r1, #15
87800504:	b410      	push	{r4}
87800506:	f04f 0401 	mov.w	r4, #1
8780050a:	fa04 f401 	lsl.w	r4, r4, r1
8780050e:	f102 32ff 	add.w	r2, r2, #4294967295	; 0xffffffff
87800512:	bf88      	it	hi
87800514:	2100      	movhi	r1, #0
87800516:	ea23 0304 	bic.w	r3, r3, r4
8780051a:	61c3      	str	r3, [r0, #28]
8780051c:	bf94      	ite	ls
8780051e:	300c      	addls	r0, #12
87800520:	3010      	addhi	r0, #16
87800522:	2a03      	cmp	r2, #3
87800524:	d810      	bhi.n	87800548 <gpio_interrupt_config+0x48>
87800526:	e8df f002 	tbb	[pc, r2]
8780052a:	12022025 	andne	r2, r2, #37	; 0x25
8780052e:	6802      	ldr	r2, [r0, #0]
87800530:	0049      	lsls	r1, r1, #1
87800532:	2403      	movs	r4, #3
87800534:	2302      	movs	r3, #2
87800536:	408c      	lsls	r4, r1
87800538:	fa03 f101 	lsl.w	r1, r3, r1
8780053c:	ea62 0204 	orn	r2, r2, r4
87800540:	6002      	str	r2, [r0, #0]
87800542:	6803      	ldr	r3, [r0, #0]
87800544:	4319      	orrs	r1, r3
87800546:	6001      	str	r1, [r0, #0]
87800548:	f85d 4b04 	ldr.w	r4, [sp], #4
8780054c:	4770      	bx	lr
8780054e:	0049      	lsls	r1, r1, #1
87800550:	6802      	ldr	r2, [r0, #0]
87800552:	2303      	movs	r3, #3
87800554:	f85d 4b04 	ldr.w	r4, [sp], #4
87800558:	fa03 f101 	lsl.w	r1, r3, r1
8780055c:	ea62 0201 	orn	r2, r2, r1
87800560:	6002      	str	r2, [r0, #0]
87800562:	6803      	ldr	r3, [r0, #0]
87800564:	4319      	orrs	r1, r3
87800566:	6001      	str	r1, [r0, #0]
87800568:	4770      	bx	lr
8780056a:	0049      	lsls	r1, r1, #1
8780056c:	2403      	movs	r4, #3
8780056e:	6802      	ldr	r2, [r0, #0]
87800570:	2301      	movs	r3, #1
87800572:	e7e0      	b.n	87800536 <gpio_interrupt_config+0x36>
87800574:	0049      	lsls	r1, r1, #1
87800576:	6803      	ldr	r3, [r0, #0]
87800578:	2203      	movs	r2, #3
8780057a:	f85d 4b04 	ldr.w	r4, [sp], #4
8780057e:	fa02 f101 	lsl.w	r1, r2, r1
87800582:	ea63 0101 	orn	r1, r3, r1
87800586:	6001      	str	r1, [r0, #0]
87800588:	4770      	bx	lr
8780058a:	bf00      	nop

8780058c <gpio_init>:
8780058c:	b410      	push	{r4}
8780058e:	2301      	movs	r3, #1
87800590:	6814      	ldr	r4, [r2, #0]
87800592:	408b      	lsls	r3, r1
87800594:	b164      	cbz	r4, 878005b0 <gpio_init+0x24>
87800596:	6844      	ldr	r4, [r0, #4]
87800598:	431c      	orrs	r4, r3
8780059a:	6044      	str	r4, [r0, #4]
8780059c:	7914      	ldrb	r4, [r2, #4]
8780059e:	b184      	cbz	r4, 878005c2 <gpio_init+0x36>
878005a0:	6804      	ldr	r4, [r0, #0]
878005a2:	6892      	ldr	r2, [r2, #8]
878005a4:	4323      	orrs	r3, r4
878005a6:	f85d 4b04 	ldr.w	r4, [sp], #4
878005aa:	6003      	str	r3, [r0, #0]
878005ac:	f7ff bfa8 	b.w	87800500 <gpio_interrupt_config>
878005b0:	6844      	ldr	r4, [r0, #4]
878005b2:	6892      	ldr	r2, [r2, #8]
878005b4:	ea24 0303 	bic.w	r3, r4, r3
878005b8:	f85d 4b04 	ldr.w	r4, [sp], #4
878005bc:	6043      	str	r3, [r0, #4]
878005be:	f7ff bf9f 	b.w	87800500 <gpio_interrupt_config>
878005c2:	6804      	ldr	r4, [r0, #0]
878005c4:	6892      	ldr	r2, [r2, #8]
878005c6:	ea24 0303 	bic.w	r3, r4, r3
878005ca:	f85d 4b04 	ldr.w	r4, [sp], #4
878005ce:	6003      	str	r3, [r0, #0]
878005d0:	f7ff bf96 	b.w	87800500 <gpio_interrupt_config>

878005d4 <default_irq_hadler_t>:
878005d4:	e7fe      	b.n	878005d4 <default_irq_hadler_t>
878005d6:	bf00      	nop

878005d8 <system_irqtable_init>:
878005d8:	b410      	push	{r4}
878005da:	f240 52d5 	movw	r2, #1493	; 0x5d5
878005de:	2400      	movs	r4, #0
878005e0:	f240 63dc 	movw	r3, #1756	; 0x6dc
878005e4:	4621      	mov	r1, r4
878005e6:	f2c8 7280 	movt	r2, #34688	; 0x8780
878005ea:	f2c8 7380 	movt	r3, #34688	; 0x8780
878005ee:	f203 5004 	addw	r0, r3, #1284	; 0x504
878005f2:	f843 4b04 	str.w	r4, [r3], #4
878005f6:	e9c3 2100 	strd	r2, r1, [r3]
878005fa:	3308      	adds	r3, #8
878005fc:	4283      	cmp	r3, r0
878005fe:	d1fa      	bne.n	878005f6 <system_irqtable_init+0x1e>
87800600:	f85d 4b04 	ldr.w	r4, [sp], #4
87800604:	4770      	bx	lr
87800606:	bf00      	nop

87800608 <system_register_irqhandler>:
87800608:	f240 63dc 	movw	r3, #1756	; 0x6dc
8780060c:	f2c8 7380 	movt	r3, #34688	; 0x8780
87800610:	eb03 00c0 	add.w	r0, r3, r0, lsl #3
87800614:	e9c0 1201 	strd	r1, r2, [r0, #4]
87800618:	4770      	bx	lr
8780061a:	bf00      	nop

8780061c <system_irqhandler>:
8780061c:	b538      	push	{r3, r4, r5, lr}
8780061e:	f3c0 030d 	ubfx	r3, r0, #0, #14
87800622:	2ba0      	cmp	r3, #160	; 0xa0
87800624:	d80f      	bhi.n	87800646 <system_irqhandler+0x2a>
87800626:	f240 64dc 	movw	r4, #1756	; 0x6dc
8780062a:	4618      	mov	r0, r3
8780062c:	f2c8 7480 	movt	r4, #34688	; 0x8780
87800630:	6822      	ldr	r2, [r4, #0]
87800632:	eb04 03c3 	add.w	r3, r4, r3, lsl #3
87800636:	685d      	ldr	r5, [r3, #4]
87800638:	3201      	adds	r2, #1
8780063a:	6899      	ldr	r1, [r3, #8]
8780063c:	6022      	str	r2, [r4, #0]
8780063e:	47a8      	blx	r5
87800640:	6823      	ldr	r3, [r4, #0]
87800642:	3b01      	subs	r3, #1
87800644:	6023      	str	r3, [r4, #0]
87800646:	bd38      	pop	{r3, r4, r5, pc}

87800648 <int_init>:
87800648:	b470      	push	{r4, r5, r6}
8780064a:	ee9f 4f10 	mrc	15, 4, r4, cr15, cr0, {0}
8780064e:	0c24      	lsrs	r4, r4, #16
87800650:	f241 0204 	movw	r2, #4100	; 0x1004
87800654:	2300      	movs	r3, #0
87800656:	0424      	lsls	r4, r4, #16
87800658:	f04f 30ff 	mov.w	r0, #4294967295	; 0xffffffff
8780065c:	58a1      	ldr	r1, [r4, r2]
8780065e:	f001 011f 	and.w	r1, r1, #31
87800662:	3101      	adds	r1, #1
87800664:	f503 628c 	add.w	r2, r3, #1120	; 0x460
87800668:	3301      	adds	r3, #1
8780066a:	4299      	cmp	r1, r3
8780066c:	f844 0022 	str.w	r0, [r4, r2, lsl #2]
87800670:	d1f8      	bne.n	87800664 <int_init+0x1c>
87800672:	f240 63dc 	movw	r3, #1756	; 0x6dc
87800676:	2500      	movs	r5, #0
87800678:	f2c8 7380 	movt	r3, #34688	; 0x8780
8780067c:	f242 0104 	movw	r1, #8196	; 0x2004
87800680:	26f8      	movs	r6, #248	; 0xf8
87800682:	f240 52d5 	movw	r2, #1493	; 0x5d5
87800686:	5066      	str	r6, [r4, r1]
87800688:	f203 5004 	addw	r0, r3, #1284	; 0x504
8780068c:	f242 0608 	movw	r6, #8200	; 0x2008
87800690:	4629      	mov	r1, r5
87800692:	f843 5b04 	str.w	r5, [r3], #4
87800696:	f2c8 7280 	movt	r2, #34688	; 0x8780
8780069a:	2502      	movs	r5, #2
8780069c:	51a5      	str	r5, [r4, r6]
8780069e:	f504 5680 	add.w	r6, r4, #4096	; 0x1000
878006a2:	2501      	movs	r5, #1
878006a4:	f504 5400 	add.w	r4, r4, #8192	; 0x2000
878006a8:	6035      	str	r5, [r6, #0]
878006aa:	6025      	str	r5, [r4, #0]
878006ac:	e9c3 2100 	strd	r2, r1, [r3]
878006b0:	3308      	adds	r3, #8
878006b2:	4298      	cmp	r0, r3
878006b4:	d1fa      	bne.n	878006ac <int_init+0x64>
878006b6:	2300      	movs	r3, #0
878006b8:	f2c8 7380 	movt	r3, #34688	; 0x8780
878006bc:	ee0c 3f10 	mcr	15, 0, r3, cr12, cr0, {0}
878006c0:	bc70      	pop	{r4, r5, r6}
878006c2:	4770      	bx	lr
878006c4:	0000      	movs	r0, r0
	...

878006c8 <__main_from_arm>:
878006c8:	e51ff004 	ldr	pc, [pc, #-4]	; 878006cc <__main_from_arm+0x4>
878006cc:	878006d1 			; <UNDEFINED> instruction: 0x878006d1

Disassembly of section .text.startup:

878006d0 <main>:
878006d0:	b508      	push	{r3, lr}
878006d2:	f7ff fd59 	bl	87800188 <imx6ul_init>
878006d6:	e7fe      	b.n	878006d6 <main+0x6>

Disassembly of section .bss:

878006d8 <__bss_start>:
	...

878006d9 <state.9384>:
878006d9:	00000000 	andeq	r0, r0, r0

878006dc <irqNesting>:
878006dc:	00000000 	andeq	r0, r0, r0

878006e0 <irqTable>:
	...

Disassembly of section .comment:

00000000 <.comment>:
   0:	3a434347 	bcc	10d0d24 <_start-0x8672f2dc>
   4:	694c2820 	stmdbvs	ip, {r5, fp, sp}^
   8:	6f72616e 	svcvs	0x0072616e
   c:	43434720 	movtmi	r4, #14112	; 0x3720
  10:	352e3720 	strcc	r3, [lr, #-1824]!	; 0xfffff8e0
  14:	3130322d 	teqcc	r0, sp, lsr #4
  18:	32312e39 	eorscc	r2, r1, #912	; 0x390
  1c:	2e372029 	cdpcs	0, 3, cr2, cr7, cr9, {1}
  20:	00302e35 	eorseq	r2, r0, r5, lsr lr

Disassembly of section .ARM.attributes:

00000000 <.ARM.attributes>:
   0:	00002e41 	andeq	r2, r0, r1, asr #28
   4:	61656100 	cmnvs	r5, r0, lsl #2
   8:	01006962 	tsteq	r0, r2, ror #18
   c:	00000024 	andeq	r0, r0, r4, lsr #32
  10:	412d3705 			; <UNDEFINED> instruction: 0x412d3705
  14:	070a0600 	streq	r0, [sl, -r0, lsl #12]
  18:	09010841 	stmdbeq	r1, {r0, r6, fp}
  1c:	12040a02 	andne	r0, r4, #8192	; 0x2000
  20:	15011404 	strne	r1, [r1, #-1028]	; 0xfffffbfc
  24:	18031701 	stmdane	r3, {r0, r8, r9, sl, ip}
  28:	1c021a01 			; <UNDEFINED> instruction: 0x1c021a01
  2c:	Address 0x000000000000002c is out of bounds.

